target datalayout = "e-m:e-p270:32:32-p271:32:32-p272:64:64-i64:64-i128:128-f80:128-n8:16:32:64-S128"
target triple = "x86_64-pc-linux-gnu"

%struct.Raig_Man_t_ = type { ptr, i32, i32, i32, i32, i32, i32, i32, ptr, ptr, ptr, ptr, ptr, ptr, ptr, ptr, i32, i32, i32, i32 }
%struct.Vec_Int_t_ = type { i32, i32, ptr }

; Function Attrs: nounwind uwtable
define internal void @Vec_IntFree(ptr noundef %0) #0 {
  %2 = alloca ptr, align 8
  store ptr %0, ptr %2, align 8
  %3 = load ptr, ptr %2, align 8
  %4 = getelementptr inbounds %struct.Vec_Int_t_, ptr %3, i32 0, i32 2
  %5 = load ptr, ptr %4, align 8
  %6 = icmp ne ptr %5, null
  br i1 %6, label %7, label %13

7:                                                ; preds = %1
  %8 = load ptr, ptr %2, align 8
  %9 = getelementptr inbounds %struct.Vec_Int_t_, ptr %8, i32 0, i32 2
  %10 = load ptr, ptr %9, align 8
  call void @free(ptr noundef %10) #13
  %11 = load ptr, ptr %2, align 8
  %12 = getelementptr inbounds %struct.Vec_Int_t_, ptr %11, i32 0, i32 2
  store ptr null, ptr %12, align 8
  br label %14

13:                                               ; preds = %1
  br label %14

14:                                               ; preds = %13, %7
  %15 = load ptr, ptr %2, align 8
  %16 = icmp ne ptr %15, null
  br i1 %16, label %17, label %19

17:                                               ; preds = %14
  %18 = load ptr, ptr %2, align 8
  call void @free(ptr noundef %18) #13
  store ptr null, ptr %2, align 8
  br label %20

19:                                               ; preds = %14
  br label %20

20:                                               ; preds = %19, %17
  ret void
}

; Function Attrs: nounwind uwtable
define void @Raig_ManDelete(ptr noundef %0) #0 {
  %2 = alloca ptr, align 8
  store ptr %0, ptr %2, align 8
  %3 = load ptr, ptr %2, align 8
  %4 = getelementptr inbounds %struct.Raig_Man_t_, ptr %3, i32 0, i32 10
  %5 = load ptr, ptr %4, align 8
  call void @Vec_IntFree(ptr noundef %5)
  %6 = load ptr, ptr %2, align 8
  %7 = getelementptr inbounds %struct.Raig_Man_t_, ptr %6, i32 0, i32 11
  %8 = load ptr, ptr %7, align 8
  call void @Vec_IntFree(ptr noundef %8)
  %9 = load ptr, ptr %2, align 8
  %10 = getelementptr inbounds %struct.Raig_Man_t_, ptr %9, i32 0, i32 12
  %11 = load ptr, ptr %10, align 8
  call void @Vec_IntFree(ptr noundef %11)
  %12 = load ptr, ptr %2, align 8
  %13 = getelementptr inbounds %struct.Raig_Man_t_, ptr %12, i32 0, i32 8
  %14 = load ptr, ptr %13, align 8
  %15 = icmp ne ptr %14, null
  br i1 %15, label %16, label %22

16:                                               ; preds = %1
  %17 = load ptr, ptr %2, align 8
  %18 = getelementptr inbounds %struct.Raig_Man_t_, ptr %17, i32 0, i32 8
  %19 = load ptr, ptr %18, align 8
  call void @free(ptr noundef %19) #13
  %20 = load ptr, ptr %2, align 8
  %21 = getelementptr inbounds %struct.Raig_Man_t_, ptr %20, i32 0, i32 8
  store ptr null, ptr %21, align 8
  br label %23

22:                                               ; preds = %1
  br label %23

23:                                               ; preds = %22, %16
  %24 = load ptr, ptr %2, align 8
  %25 = getelementptr inbounds %struct.Raig_Man_t_, ptr %24, i32 0, i32 9
  %26 = load ptr, ptr %25, align 8
  %27 = icmp ne ptr %26, null
  br i1 %27, label %28, label %34

28:                                               ; preds = %23
  %29 = load ptr, ptr %2, align 8
  %30 = getelementptr inbounds %struct.Raig_Man_t_, ptr %29, i32 0, i32 9
  %31 = load ptr, ptr %30, align 8
  call void @free(ptr noundef %31) #13
  %32 = load ptr, ptr %2, align 8
  %33 = getelementptr inbounds %struct.Raig_Man_t_, ptr %32, i32 0, i32 9
  store ptr null, ptr %33, align 8
  br label %35

34:                                               ; preds = %23
  br label %35

35:                                               ; preds = %34, %28
  %36 = load ptr, ptr %2, align 8
  %37 = getelementptr inbounds %struct.Raig_Man_t_, ptr %36, i32 0, i32 13
  %38 = load ptr, ptr %37, align 8
  %39 = icmp ne ptr %38, null
  br i1 %39, label %40, label %46

40:                                               ; preds = %35
  %41 = load ptr, ptr %2, align 8
  %42 = getelementptr inbounds %struct.Raig_Man_t_, ptr %41, i32 0, i32 13
  %43 = load ptr, ptr %42, align 8
  call void @free(ptr noundef %43) #13
  %44 = load ptr, ptr %2, align 8
  %45 = getelementptr inbounds %struct.Raig_Man_t_, ptr %44, i32 0, i32 13
  store ptr null, ptr %45, align 8
  br label %47

46:                                               ; preds = %35
  br label %47

47:                                               ; preds = %46, %40
  %48 = load ptr, ptr %2, align 8
  %49 = getelementptr inbounds %struct.Raig_Man_t_, ptr %48, i32 0, i32 14
  %50 = load ptr, ptr %49, align 8
  %51 = icmp ne ptr %50, null
  br i1 %51, label %52, label %58

52:                                               ; preds = %47
  %53 = load ptr, ptr %2, align 8
  %54 = getelementptr inbounds %struct.Raig_Man_t_, ptr %53, i32 0, i32 14
  %55 = load ptr, ptr %54, align 8
  call void @free(ptr noundef %55) #13
  %56 = load ptr, ptr %2, align 8
  %57 = getelementptr inbounds %struct.Raig_Man_t_, ptr %56, i32 0, i32 14
  store ptr null, ptr %57, align 8
  br label %59

58:                                               ; preds = %47
  br label %59

59:                                               ; preds = %58, %52
  %60 = load ptr, ptr %2, align 8
  %61 = getelementptr inbounds %struct.Raig_Man_t_, ptr %60, i32 0, i32 15
  %62 = load ptr, ptr %61, align 8
  %63 = icmp ne ptr %62, null
  br i1 %63, label %64, label %70

64:                                               ; preds = %59
  %65 = load ptr, ptr %2, align 8
  %66 = getelementptr inbounds %struct.Raig_Man_t_, ptr %65, i32 0, i32 15
  %67 = load ptr, ptr %66, align 8
  call void @free(ptr noundef %67) #13
  %68 = load ptr, ptr %2, align 8
  %69 = getelementptr inbounds %struct.Raig_Man_t_, ptr %68, i32 0, i32 15
  store ptr null, ptr %69, align 8
  br label %71

70:                                               ; preds = %59
  br label %71

71:                                               ; preds = %70, %64
  %72 = load ptr, ptr %2, align 8
  %73 = icmp ne ptr %72, null
  br i1 %73, label %74, label %76

74:                                               ; preds = %71
  %75 = load ptr, ptr %2, align 8
  call void @free(ptr noundef %75) #13
  store ptr null, ptr %2, align 8
  br label %77

76:                                               ; preds = %71
  br label %77

77:                                               ; preds = %76, %74
  ret void
}