; Function Attrs: mustprogress nounwind willreturn uwtable
define void @Raig_ManDelete(ptr noundef captures(none) %0) local_unnamed_addr #6 {
  %2 = getelementptr inbounds nuw i8, ptr %0, i64 56
  %3 = load ptr, ptr %2, align 8
  %4 = getelementptr inbounds nuw i8, ptr %3, i64 8
  %5 = load ptr, ptr %4, align 8
  %.not.i = icmp eq ptr %5, null
  br i1 %.not.i, label %Vec_IntFree.exit, label %6

6:                                                ; preds = %1
  tail call void @free(ptr noundef nonnull %5) #18
  br label %Vec_IntFree.exit

Vec_IntFree.exit:                                 ; preds = %1, %6
  tail call void @free(ptr noundef nonnull %3) #18
  %7 = getelementptr inbounds nuw i8, ptr %0, i64 64
  %8 = load ptr, ptr %7, align 8
  %9 = getelementptr inbounds nuw i8, ptr %8, i64 8
  %10 = load ptr, ptr %9, align 8
  %.not.i30 = icmp eq ptr %10, null
  br i1 %.not.i30, label %Vec_IntFree.exit31, label %11

11:                                               ; preds = %Vec_IntFree.exit
  tail call void @free(ptr noundef nonnull %10) #18
  br label %Vec_IntFree.exit31

Vec_IntFree.exit31:                               ; preds = %Vec_IntFree.exit, %11
  tail call void @free(ptr noundef nonnull %8) #18
  %12 = getelementptr inbounds nuw i8, ptr %0, i64 72
  %13 = load ptr, ptr %12, align 8
  %14 = getelementptr inbounds nuw i8, ptr %13, i64 8
  %15 = load ptr, ptr %14, align 8
  %.not.i32 = icmp eq ptr %15, null
  br i1 %.not.i32, label %Vec_IntFree.exit33, label %16

16:                                               ; preds = %Vec_IntFree.exit31
  tail call void @free(ptr noundef nonnull %15) #18
  br label %Vec_IntFree.exit33

Vec_IntFree.exit33:                               ; preds = %Vec_IntFree.exit31, %16
  tail call void @free(ptr noundef nonnull %13) #18
  %17 = getelementptr inbounds nuw i8, ptr %0, i64 40
  %18 = load ptr, ptr %17, align 8
  %.not = icmp eq ptr %18, null
  br i1 %.not, label %20, label %19

19:                                               ; preds = %Vec_IntFree.exit33
  tail call void @free(ptr noundef nonnull %18) #18
  store ptr null, ptr %17, align 8
  br label %20

20:                                               ; preds = %Vec_IntFree.exit33, %19
  %21 = getelementptr inbounds nuw i8, ptr %0, i64 48
  %22 = load ptr, ptr %21, align 8
  %.not25 = icmp eq ptr %22, null
  br i1 %.not25, label %24, label %23

23:                                               ; preds = %20
  tail call void @free(ptr noundef nonnull %22) #18
  store ptr null, ptr %21, align 8
  br label %24

24:                                               ; preds = %20, %23
  %25 = getelementptr inbounds nuw i8, ptr %0, i64 80
  %26 = load ptr, ptr %25, align 8
  %.not26 = icmp eq ptr %26, null
  br i1 %.not26, label %28, label %27

27:                                               ; preds = %24
  tail call void @free(ptr noundef nonnull %26) #18
  store ptr null, ptr %25, align 8
  br label %28

28:                                               ; preds = %24, %27
  %29 = getelementptr inbounds nuw i8, ptr %0, i64 88
  %30 = load ptr, ptr %29, align 8
  %.not27 = icmp eq ptr %30, null
  br i1 %.not27, label %32, label %31

31:                                               ; preds = %28
  tail call void @free(ptr noundef nonnull %30) #18
  store ptr null, ptr %29, align 8
  br label %32

32:                                               ; preds = %28, %31
  %33 = getelementptr inbounds nuw i8, ptr %0, i64 96
  %34 = load ptr, ptr %33, align 8
  %.not28 = icmp eq ptr %34, null
  br i1 %.not28, label %36, label %35

35:                                               ; preds = %32
  tail call void @free(ptr noundef nonnull %34) #18
  br label %36

36:                                               ; preds = %32, %35
  tail call void @free(ptr noundef nonnull %0) #18
  ret void
}